target datalayout = "e-m:e-p270:32:32-p271:32:32-p272:64:64-i64:64-i128:128-f80:128-n8:16:32:64-S128"
target triple = "x86_64-pc-linux-gnu"

%struct.CVodeMemRec = type { ptr, double, ptr, ptr, i32, i32, double, double, ptr, i32, i32, ptr, ptr, i32, [13 x ptr], ptr, ptr, ptr, ptr, ptr, ptr, ptr, ptr, ptr, i32, i32, double, i32, i32, i32, i32, i32, double, double, double, double, double, double, double, double, [14 x double], [6 x double], [13 x double], double, double, double, double, double, double, double, i32, double, i32, i64, i32, i32, i32, double, double, double, double, double, double, double, double, double, double, double, double, i64, i32, i64, i64, i64, i64, i64, i64, i64, i32, double, double, double, i64, i64, i64, i64, ptr, i32, ptr, i32, ptr, ptr, ptr, ptr, ptr, i64, double, i32, i64, double, double, double, i32, double, i32, i32, i32, i32, i32, ptr, i64, i32, [6 x [4 x double]], i32, i64, ptr, i32, ptr, ptr, double, double, double, ptr, ptr, ptr, double, double, i32, i32, i64, ptr, i32, ptr, i32, i32, [13 x double], [13 x double], [13 x ptr], i32 }
%struct.CVLsMemRec = type { i32, i32, i32, ptr, ptr, i32, double, i32, double, double, ptr, ptr, ptr, ptr, ptr, ptr, ptr, i64, i64, i64, i64, i64, i64, i64, i64, i64, i64, double, ptr, ptr, ptr, ptr, i32, ptr, ptr, ptr, ptr, i32, ptr, ptr, i32 }

@.str = private unnamed_addr constant [116 x i8] c"generated/home/dtcxzyw/WorkSpace/Projects/compilers/llvm-opt-benchmark/bench/sundials/sundials/src/cvode/cvode_ls.c\00", align 1
@.str.30 = private unnamed_addr constant [30 x i8] c"Linear solver memory is NULL.\00", align 1
@__func__.cvLsSetup = private unnamed_addr constant [10 x i8] c"cvLsSetup\00", align 1
@.str.33 = private unnamed_addr constant [56 x i8] c"The Jacobian routine failed in an unrecoverable manner.\00", align 1

; Function Attrs: nounwind uwtable
define i32 @cvLsSetup(ptr noundef %0, i32 noundef %1, ptr noundef %2, ptr noundef %3, ptr noundef %4, ptr noundef %5, ptr noundef %6, ptr noundef %7) #0 {
  %9 = alloca i32, align 4
  %10 = alloca ptr, align 8
  %11 = alloca i32, align 4
  %12 = alloca ptr, align 8
  %13 = alloca ptr, align 8
  %14 = alloca ptr, align 8
  %15 = alloca ptr, align 8
  %16 = alloca ptr, align 8
  %17 = alloca ptr, align 8
  %18 = alloca ptr, align 8
  %19 = alloca double, align 8
  %20 = alloca i32, align 4
  %21 = alloca i32, align 4
  store ptr %0, ptr %10, align 8, !tbaa !11
  store i32 %1, ptr %11, align 4, !tbaa !20
  store ptr %2, ptr %12, align 8, !tbaa !85
  store ptr %3, ptr %13, align 8, !tbaa !85
  store ptr %4, ptr %14, align 8, !tbaa !86
  store ptr %5, ptr %15, align 8, !tbaa !85
  store ptr %6, ptr %16, align 8, !tbaa !85
  store ptr %7, ptr %17, align 8, !tbaa !85
  call void @llvm.lifetime.start.p0(i64 8, ptr %18) #7
  call void @llvm.lifetime.start.p0(i64 8, ptr %19) #7
  call void @llvm.lifetime.start.p0(i64 4, ptr %20) #7
  %22 = load ptr, ptr %10, align 8, !tbaa !11
  %23 = getelementptr inbounds nuw %struct.CVodeMemRec, ptr %22, i32 0, i32 94
  %24 = load ptr, ptr %23, align 8, !tbaa !79
  %25 = icmp eq ptr %24, null
  br i1 %25, label %26, label %28

26:                                               ; preds = %8
  %27 = load ptr, ptr %10, align 8, !tbaa !11
  call void (ptr, i32, i32, ptr, ptr, ptr, ...) @cvProcessError(ptr noundef %27, i32 noundef -2, i32 noundef 1544, ptr noundef @__func__.cvLsSetup, ptr noundef @.str, ptr noundef @.str.30)
  store i32 -2, ptr %9, align 4
  store i32 1, ptr %21, align 4
  br label %214

28:                                               ; preds = %8
  %29 = load ptr, ptr %10, align 8, !tbaa !11
  %30 = getelementptr inbounds nuw %struct.CVodeMemRec, ptr %29, i32 0, i32 94
  %31 = load ptr, ptr %30, align 8, !tbaa !79
  store ptr %31, ptr %18, align 8, !tbaa !43
  %32 = load ptr, ptr %18, align 8, !tbaa !43
  %33 = getelementptr inbounds nuw %struct.CVLsMemRec, ptr %32, i32 0, i32 10
  %34 = load ptr, ptr %33, align 8, !tbaa !45
  %35 = call i32 @SUNLinSolGetType(ptr noundef %34)
  %36 = icmp eq i32 %35, 3
  br i1 %36, label %37, label %43

37:                                               ; preds = %28
  %38 = load ptr, ptr %18, align 8, !tbaa !43
  %39 = getelementptr inbounds nuw %struct.CVLsMemRec, ptr %38, i32 0, i32 40
  store i32 0, ptr %39, align 8, !tbaa !70
  %40 = load ptr, ptr %18, align 8, !tbaa !43
  %41 = getelementptr inbounds nuw %struct.CVLsMemRec, ptr %40, i32 0, i32 40
  %42 = load i32, ptr %41, align 8, !tbaa !70
  store i32 %42, ptr %9, align 4
  store i32 1, ptr %21, align 4
  br label %214

43:                                               ; preds = %28
  %44 = load ptr, ptr %12, align 8, !tbaa !85
  %45 = load ptr, ptr %18, align 8, !tbaa !43
  %46 = getelementptr inbounds nuw %struct.CVLsMemRec, ptr %45, i32 0, i32 15
  store ptr %44, ptr %46, align 8, !tbaa !87
  %47 = load ptr, ptr %13, align 8, !tbaa !85
  %48 = load ptr, ptr %18, align 8, !tbaa !43
  %49 = getelementptr inbounds nuw %struct.CVLsMemRec, ptr %48, i32 0, i32 16
  store ptr %47, ptr %49, align 8, !tbaa !88
  %50 = load ptr, ptr %10, align 8, !tbaa !11
  %51 = getelementptr inbounds nuw %struct.CVodeMemRec, ptr %50, i32 0, i32 44
  %52 = load double, ptr %51, align 8, !tbaa !89
  %53 = load ptr, ptr %10, align 8, !tbaa !11
  %54 = getelementptr inbounds nuw %struct.CVodeMemRec, ptr %53, i32 0, i32 45
  %55 = load double, ptr %54, align 8, !tbaa !90
  %56 = fdiv double %52, %55
  %57 = fsub double %56, 1.000000e+00
  %58 = call double @llvm.fabs.f64(double %57)
  store double %58, ptr %19, align 8, !tbaa !91
  %59 = load ptr, ptr %10, align 8, !tbaa !11
  %60 = getelementptr inbounds nuw %struct.CVodeMemRec, ptr %59, i32 0, i32 71
  %61 = load i64, ptr %60, align 8, !tbaa !92
  %62 = icmp eq i64 %61, 0
  br i1 %62, label %87, label %63

63:                                               ; preds = %43
  %64 = load ptr, ptr %10, align 8, !tbaa !11
  %65 = getelementptr inbounds nuw %struct.CVodeMemRec, ptr %64, i32 0, i32 71
  %66 = load i64, ptr %65, align 8, !tbaa !92
  %67 = load ptr, ptr %18, align 8, !tbaa !43
  %68 = getelementptr inbounds nuw %struct.CVLsMemRec, ptr %67, i32 0, i32 20
  %69 = load i64, ptr %68, align 8, !tbaa !93
  %70 = load ptr, ptr %18, align 8, !tbaa !43
  %71 = getelementptr inbounds nuw %struct.CVLsMemRec, ptr %70, i32 0, i32 17
  %72 = load i64, ptr %71, align 8, !tbaa !66
  %73 = add nsw i64 %69, %72
  %74 = icmp sge i64 %66, %73
  br i1 %74, label %87, label %75

75:                                               ; preds = %63
  %76 = load i32, ptr %11, align 4, !tbaa !20
  %77 = icmp eq i32 %76, 1
  br i1 %77, label %78, label %84

78:                                               ; preds = %75
  %79 = load double, ptr %19, align 8, !tbaa !91
  %80 = load ptr, ptr %18, align 8, !tbaa !43
  %81 = getelementptr inbounds nuw %struct.CVLsMemRec, ptr %80, i32 0, i32 6
  %82 = load double, ptr %81, align 8, !tbaa !68
  %83 = fcmp olt double %79, %82
  br i1 %83, label %87, label %84

84:                                               ; preds = %78, %75
  %85 = load i32, ptr %11, align 4, !tbaa !20
  %86 = icmp eq i32 %85, 2
  br label %87

87:                                               ; preds = %84, %78, %63, %43
  %88 = phi i1 [ true, %78 ], [ true, %63 ], [ true, %43 ], [ %86, %84 ]
  %89 = zext i1 %88 to i32
  %90 = load ptr, ptr %18, align 8, !tbaa !43
  %91 = getelementptr inbounds nuw %struct.CVLsMemRec, ptr %90, i32 0, i32 5
  store i32 %89, ptr %91, align 8, !tbaa !67
  %92 = load ptr, ptr %18, align 8, !tbaa !43
  %93 = getelementptr inbounds nuw %struct.CVLsMemRec, ptr %92, i32 0, i32 11
  %94 = load ptr, ptr %93, align 8, !tbaa !72
  %95 = icmp ne ptr %94, null
  br i1 %95, label %96, label %164

96:                                               ; preds = %87
  %97 = load ptr, ptr %18, align 8, !tbaa !43
  %98 = getelementptr inbounds nuw %struct.CVLsMemRec, ptr %97, i32 0, i32 38
  %99 = load ptr, ptr %98, align 8, !tbaa !59
  %100 = load ptr, ptr %10, align 8, !tbaa !11
  %101 = getelementptr inbounds nuw %struct.CVodeMemRec, ptr %100, i32 0, i32 38
  %102 = load double, ptr %101, align 8, !tbaa !94
  %103 = load ptr, ptr %12, align 8, !tbaa !85
  %104 = load ptr, ptr %13, align 8, !tbaa !85
  %105 = load ptr, ptr %18, align 8, !tbaa !43
  %106 = getelementptr inbounds nuw %struct.CVLsMemRec, ptr %105, i32 0, i32 11
  %107 = load ptr, ptr %106, align 8, !tbaa !72
  %108 = load ptr, ptr %18, align 8, !tbaa !43
  %109 = getelementptr inbounds nuw %struct.CVLsMemRec, ptr %108, i32 0, i32 5
  %110 = load i32, ptr %109, align 8, !tbaa !67
  %111 = icmp ne i32 %110, 0
  %112 = xor i1 %111, true
  %113 = zext i1 %112 to i32
  %114 = load ptr, ptr %14, align 8, !tbaa !86
  %115 = load ptr, ptr %10, align 8, !tbaa !11
  %116 = getelementptr inbounds nuw %struct.CVodeMemRec, ptr %115, i32 0, i32 44
  %117 = load double, ptr %116, align 8, !tbaa !89
  %118 = load ptr, ptr %18, align 8, !tbaa !43
  %119 = getelementptr inbounds nuw %struct.CVLsMemRec, ptr %118, i32 0, i32 39
  %120 = load ptr, ptr %119, align 8, !tbaa !60
  %121 = load ptr, ptr %15, align 8, !tbaa !85
  %122 = load ptr, ptr %16, align 8, !tbaa !85
  %123 = load ptr, ptr %17, align 8, !tbaa !85
  %124 = call i32 %99(double noundef %102, ptr noundef %103, ptr noundef %104, ptr noundef %107, i32 noundef %113, ptr noundef %114, double noundef %117, ptr noundef %120, ptr noundef %121, ptr noundef %122, ptr noundef %123)
  store i32 %124, ptr %20, align 4, !tbaa !20
  %125 = load ptr, ptr %14, align 8, !tbaa !86
  %126 = load i32, ptr %125, align 4, !tbaa !20
  %127 = icmp ne i32 %126, 0
  br i1 %127, label %128, label %143

128:                                              ; preds = %96
  %129 = load ptr, ptr %18, align 8, !tbaa !43
  %130 = getelementptr inbounds nuw %struct.CVLsMemRec, ptr %129, i32 0, i32 18
  %131 = load i64, ptr %130, align 8, !tbaa !95
  %132 = add nsw i64 %131, 1
  store i64 %132, ptr %130, align 8, !tbaa !95
  %133 = load ptr, ptr %10, align 8, !tbaa !11
  %134 = getelementptr inbounds nuw %struct.CVodeMemRec, ptr %133, i32 0, i32 71
  %135 = load i64, ptr %134, align 8, !tbaa !92
  %136 = load ptr, ptr %18, align 8, !tbaa !43
  %137 = getelementptr inbounds nuw %struct.CVLsMemRec, ptr %136, i32 0, i32 20
  store i64 %135, ptr %137, align 8, !tbaa !93
  %138 = load ptr, ptr %10, align 8, !tbaa !11
  %139 = getelementptr inbounds nuw %struct.CVodeMemRec, ptr %138, i32 0, i32 38
  %140 = load double, ptr %139, align 8, !tbaa !94
  %141 = load ptr, ptr %18, align 8, !tbaa !43
  %142 = getelementptr inbounds nuw %struct.CVLsMemRec, ptr %141, i32 0, i32 27
  store double %140, ptr %142, align 8, !tbaa !96
  br label %143

143:                                              ; preds = %128, %96
  %144 = load i32, ptr %20, align 4, !tbaa !20
  %145 = icmp ne i32 %144, 0
  br i1 %145, label %146, label %163

146:                                              ; preds = %143
  %147 = load ptr, ptr %18, align 8, !tbaa !43
  %148 = getelementptr inbounds nuw %struct.CVLsMemRec, ptr %147, i32 0, i32 37
  %149 = load i32, ptr %148, align 8, !tbaa !58
  %150 = icmp ne i32 %149, 0
  br i1 %150, label %151, label %161

151:                                              ; preds = %146
  %152 = load i32, ptr %20, align 4, !tbaa !20
  %153 = icmp slt i32 %152, 0
  br i1 %153, label %154, label %158

154:                                              ; preds = %151
  %155 = load ptr, ptr %10, align 8, !tbaa !11
  call void (ptr, i32, i32, ptr, ptr, ptr, ...) @cvProcessError(ptr noundef %155, i32 noundef -6, i32 noundef 1592, ptr noundef @__func__.cvLsSetup, ptr noundef @.str, ptr noundef @.str.33)
  %156 = load ptr, ptr %18, align 8, !tbaa !43
  %157 = getelementptr inbounds nuw %struct.CVLsMemRec, ptr %156, i32 0, i32 40
  store i32 -6, ptr %157, align 8, !tbaa !70
  store i32 -1, ptr %9, align 4
  store i32 1, ptr %21, align 4
  br label %214

158:                                              ; preds = %151
  %159 = load ptr, ptr %18, align 8, !tbaa !43
  %160 = getelementptr inbounds nuw %struct.CVLsMemRec, ptr %159, i32 0, i32 40
  store i32 -7, ptr %160, align 8, !tbaa !70
  store i32 1, ptr %9, align 4
  store i32 1, ptr %21, align 4
  br label %214

161:                                              ; preds = %146
  %162 = load i32, ptr %20, align 4, !tbaa !20
  store i32 %162, ptr %9, align 4
  store i32 1, ptr %21, align 4
  br label %214

163:                                              ; preds = %143
  br label %169

164:                                              ; preds = %87
  %165 = load ptr, ptr %18, align 8, !tbaa !43
  %166 = getelementptr inbounds nuw %struct.CVLsMemRec, ptr %165, i32 0, i32 5
  %167 = load i32, ptr %166, align 8, !tbaa !67
  %168 = load ptr, ptr %14, align 8, !tbaa !86
  store i32 %167, ptr %168, align 4, !tbaa !20
  br label %169

169:                                              ; preds = %164, %163
  %170 = load ptr, ptr %18, align 8, !tbaa !43
  %171 = getelementptr inbounds nuw %struct.CVLsMemRec, ptr %170, i32 0, i32 10
  %172 = load ptr, ptr %171, align 8, !tbaa !45
  %173 = load ptr, ptr %18, align 8, !tbaa !43
  %174 = getelementptr inbounds nuw %struct.CVLsMemRec, ptr %173, i32 0, i32 11
  %175 = load ptr, ptr %174, align 8, !tbaa !72
  %176 = call i32 @SUNLinSolSetup(ptr noundef %172, ptr noundef %175)
  %177 = load ptr, ptr %18, align 8, !tbaa !43
  %178 = getelementptr inbounds nuw %struct.CVLsMemRec, ptr %177, i32 0, i32 40
  store i32 %176, ptr %178, align 8, !tbaa !70
  %179 = load ptr, ptr %18, align 8, !tbaa !43
  %180 = getelementptr inbounds nuw %struct.CVLsMemRec, ptr %179, i32 0, i32 11
  %181 = load ptr, ptr %180, align 8, !tbaa !72
  %182 = icmp eq ptr %181, null
  br i1 %182, label %183, label %210

183:                                              ; preds = %169
  %184 = load ptr, ptr %14, align 8, !tbaa !86
  %185 = load i32, ptr %184, align 4, !tbaa !20
  %186 = icmp ne i32 %185, 0
  br i1 %186, label %187, label %202

187:                                              ; preds = %183
  %188 = load ptr, ptr %18, align 8, !tbaa !43
  %189 = getelementptr inbounds nuw %struct.CVLsMemRec, ptr %188, i32 0, i32 21
  %190 = load i64, ptr %189, align 8, !tbaa !97
  %191 = add nsw i64 %190, 1
  store i64 %191, ptr %189, align 8, !tbaa !97
  %192 = load ptr, ptr %10, align 8, !tbaa !11
  %193 = getelementptr inbounds nuw %struct.CVodeMemRec, ptr %192, i32 0, i32 71
  %194 = load i64, ptr %193, align 8, !tbaa !92
  %195 = load ptr, ptr %18, align 8, !tbaa !43
  %196 = getelementptr inbounds nuw %struct.CVLsMemRec, ptr %195, i32 0, i32 20
  store i64 %194, ptr %196, align 8, !tbaa !93
  %197 = load ptr, ptr %10, align 8, !tbaa !11
  %198 = getelementptr inbounds nuw %struct.CVodeMemRec, ptr %197, i32 0, i32 38
  %199 = load double, ptr %198, align 8, !tbaa !94
  %200 = load ptr, ptr %18, align 8, !tbaa !43
  %201 = getelementptr inbounds nuw %struct.CVLsMemRec, ptr %200, i32 0, i32 27
  store double %199, ptr %201, align 8, !tbaa !96
  br label %202

202:                                              ; preds = %187, %183
  %203 = load ptr, ptr %18, align 8, !tbaa !43
  %204 = getelementptr inbounds nuw %struct.CVLsMemRec, ptr %203, i32 0, i32 5
  %205 = load i32, ptr %204, align 8, !tbaa !67
  %206 = icmp ne i32 %205, 0
  br i1 %206, label %207, label %209

207:                                              ; preds = %202
  %208 = load ptr, ptr %14, align 8, !tbaa !86
  store i32 1, ptr %208, align 4, !tbaa !20
  br label %209

209:                                              ; preds = %207, %202
  br label %210

210:                                              ; preds = %209, %169
  %211 = load ptr, ptr %18, align 8, !tbaa !43
  %212 = getelementptr inbounds nuw %struct.CVLsMemRec, ptr %211, i32 0, i32 40
  %213 = load i32, ptr %212, align 8, !tbaa !70
  store i32 %213, ptr %9, align 4
  store i32 1, ptr %21, align 4
  br label %214

214:                                              ; preds = %210, %161, %158, %154, %37, %26
  call void @llvm.lifetime.end.p0(i64 4, ptr %20) #7
  call void @llvm.lifetime.end.p0(i64 8, ptr %19) #7
  call void @llvm.lifetime.end.p0(i64 8, ptr %18) #7
  %215 = load i32, ptr %9, align 4
  ret i32 %215
}