; Function Attrs: nounwind uwtable
define i32 @cvLsSetup(ptr noundef %0, i32 noundef %1, ptr noundef %2, ptr noundef %3, ptr noundef %4, ptr noundef %5, ptr noundef %6, ptr noundef %7) #0 {
  %9 = getelementptr inbounds nuw i8, ptr %0, i64 1040
  %10 = load ptr, ptr %9, align 8, !tbaa !69
  %11 = icmp eq ptr %10, null
  br i1 %11, label %12, label %13

12:                                               ; preds = %8
  tail call void (ptr, i32, i32, ptr, ptr, ptr, ...) @cvProcessError(ptr noundef nonnull %0, i32 noundef -2, i32 noundef 1544, ptr noundef nonnull @__func__.cvLsSetup, ptr noundef nonnull @.str, ptr noundef nonnull @.str.30) #13
  br label %104

13:                                               ; preds = %8
  %14 = getelementptr inbounds nuw i8, ptr %10, i64 72
  %15 = load ptr, ptr %14, align 8, !tbaa !35
  %16 = tail call i32 @SUNLinSolGetType(ptr noundef %15) #13
  %17 = icmp eq i32 %16, 3
  br i1 %17, label %18, label %20

18:                                               ; preds = %13
  %19 = getelementptr inbounds nuw i8, ptr %10, i64 312
  store i32 0, ptr %19, align 8, !tbaa !59
  br label %104

20:                                               ; preds = %13
  %21 = getelementptr inbounds nuw i8, ptr %10, i64 112
  store ptr %2, ptr %21, align 8, !tbaa !76
  %22 = getelementptr inbounds nuw i8, ptr %10, i64 120
  store ptr %3, ptr %22, align 8, !tbaa !77
  %23 = getelementptr inbounds nuw i8, ptr %0, i64 648
  %24 = load double, ptr %23, align 8, !tbaa !78
  %25 = getelementptr inbounds nuw i8, ptr %0, i64 656
  %26 = load double, ptr %25, align 8, !tbaa !79
  %27 = fdiv double %24, %26
  %28 = fadd double %27, -1.000000e+00
  %29 = tail call double @llvm.fabs.f64(double %28)
  %30 = getelementptr inbounds nuw i8, ptr %0, i64 856
  %31 = load i64, ptr %30, align 8, !tbaa !80
  %32 = icmp eq i64 %31, 0
  br i1 %32, label %47, label %33

33:                                               ; preds = %20
  %34 = getelementptr inbounds nuw i8, ptr %10, i64 152
  %35 = load i64, ptr %34, align 8, !tbaa !81
  %36 = getelementptr inbounds nuw i8, ptr %10, i64 128
  %37 = load i64, ptr %36, align 8, !tbaa !55
  %38 = add nsw i64 %37, %35
  %.not = icmp slt i64 %31, %38
  br i1 %.not, label %39, label %47

39:                                               ; preds = %33
  %40 = icmp eq i32 %1, 1
  br i1 %40, label %41, label %45

41:                                               ; preds = %39
  %42 = getelementptr inbounds nuw i8, ptr %10, i64 40
  %43 = load double, ptr %42, align 8, !tbaa !57
  %44 = fcmp olt double %29, %43
  br i1 %44, label %47, label %45

45:                                               ; preds = %41, %39
  %46 = icmp eq i32 %1, 2
  br label %47

47:                                               ; preds = %45, %41, %33, %20
  %48 = phi i1 [ true, %41 ], [ true, %33 ], [ true, %20 ], [ %46, %45 ]
  %49 = zext i1 %48 to i32
  %50 = getelementptr inbounds nuw i8, ptr %10, i64 32
  store i32 %49, ptr %50, align 8, !tbaa !56
  %51 = getelementptr inbounds nuw i8, ptr %10, i64 80
  %52 = load ptr, ptr %51, align 8, !tbaa !61
  %.not66 = icmp eq ptr %52, null
  br i1 %.not66, label %82, label %53

53:                                               ; preds = %47
  %54 = getelementptr inbounds nuw i8, ptr %10, i64 296
  %55 = load ptr, ptr %54, align 8, !tbaa !51
  %56 = getelementptr inbounds nuw i8, ptr %0, i64 360
  %57 = load double, ptr %56, align 8, !tbaa !82
  %58 = xor i1 %48, true
  %59 = zext i1 %58 to i32
  %60 = getelementptr inbounds nuw i8, ptr %10, i64 304
  %61 = load ptr, ptr %60, align 8, !tbaa !52
  %62 = tail call i32 %55(double noundef %57, ptr noundef %2, ptr noundef %3, ptr noundef nonnull %52, i32 noundef %59, ptr noundef %4, double noundef %24, ptr noundef %61, ptr noundef %5, ptr noundef %6, ptr noundef %7) #13
  %63 = load i32, ptr %4, align 4, !tbaa !65
  %.not67 = icmp eq i32 %63, 0
  br i1 %.not67, label %72, label %64

64:                                               ; preds = %53
  %65 = getelementptr inbounds nuw i8, ptr %10, i64 136
  %66 = load i64, ptr %65, align 8, !tbaa !83
  %67 = add nsw i64 %66, 1
  store i64 %67, ptr %65, align 8, !tbaa !83
  %68 = load i64, ptr %30, align 8, !tbaa !80
  %69 = getelementptr inbounds nuw i8, ptr %10, i64 152
  store i64 %68, ptr %69, align 8, !tbaa !81
  %70 = load double, ptr %56, align 8, !tbaa !82
  %71 = getelementptr inbounds nuw i8, ptr %10, i64 208
  store double %70, ptr %71, align 8, !tbaa !84
  br label %72

72:                                               ; preds = %64, %53
  %.not68 = icmp eq i32 %62, 0
  br i1 %.not68, label %._crit_edge, label %73

._crit_edge:                                      ; preds = %72
  %.pre = load ptr, ptr %51, align 8, !tbaa !61
  br label %83

73:                                               ; preds = %72
  %74 = getelementptr inbounds nuw i8, ptr %10, i64 288
  %75 = load i32, ptr %74, align 8, !tbaa !50
  %.not71 = icmp eq i32 %75, 0
  br i1 %.not71, label %104, label %76

76:                                               ; preds = %73
  %77 = icmp slt i32 %62, 0
  br i1 %77, label %78, label %80

78:                                               ; preds = %76
  tail call void (ptr, i32, i32, ptr, ptr, ptr, ...) @cvProcessError(ptr noundef nonnull %0, i32 noundef -6, i32 noundef 1592, ptr noundef nonnull @__func__.cvLsSetup, ptr noundef nonnull @.str, ptr noundef nonnull @.str.33) #13
  %79 = getelementptr inbounds nuw i8, ptr %10, i64 312
  store i32 -6, ptr %79, align 8, !tbaa !59
  br label %104

80:                                               ; preds = %76
  %81 = getelementptr inbounds nuw i8, ptr %10, i64 312
  store i32 -7, ptr %81, align 8, !tbaa !59
  br label %104

82:                                               ; preds = %47
  store i32 %49, ptr %4, align 4, !tbaa !65
  br label %83

83:                                               ; preds = %._crit_edge, %82
  %84 = phi ptr [ %.pre, %._crit_edge ], [ null, %82 ]
  %85 = load ptr, ptr %14, align 8, !tbaa !35
  %86 = tail call i32 @SUNLinSolSetup(ptr noundef %85, ptr noundef %84) #13
  %87 = getelementptr inbounds nuw i8, ptr %10, i64 312
  store i32 %86, ptr %87, align 8, !tbaa !59
  %88 = load ptr, ptr %51, align 8, !tbaa !61
  %89 = icmp eq ptr %88, null
  br i1 %89, label %90, label %104

90:                                               ; preds = %83
  %91 = load i32, ptr %4, align 4, !tbaa !65
  %.not69 = icmp eq i32 %91, 0
  br i1 %.not69, label %101, label %92

92:                                               ; preds = %90
  %93 = getelementptr inbounds nuw i8, ptr %10, i64 160
  %94 = load i64, ptr %93, align 8, !tbaa !85
  %95 = add nsw i64 %94, 1
  store i64 %95, ptr %93, align 8, !tbaa !85
  %96 = load i64, ptr %30, align 8, !tbaa !80
  %97 = getelementptr inbounds nuw i8, ptr %10, i64 152
  store i64 %96, ptr %97, align 8, !tbaa !81
  %98 = getelementptr inbounds nuw i8, ptr %0, i64 360
  %99 = load double, ptr %98, align 8, !tbaa !82
  %100 = getelementptr inbounds nuw i8, ptr %10, i64 208
  store double %99, ptr %100, align 8, !tbaa !84
  br label %101

101:                                              ; preds = %92, %90
  %102 = load i32, ptr %50, align 8, !tbaa !56
  %.not70 = icmp eq i32 %102, 0
  br i1 %.not70, label %104, label %103

103:                                              ; preds = %101
  store i32 1, ptr %4, align 4, !tbaa !65
  %.pre72 = load i32, ptr %87, align 8, !tbaa !59
  br label %104

104:                                              ; preds = %83, %103, %101, %73, %80, %78, %18, %12
  %.0 = phi i32 [ -2, %12 ], [ 0, %18 ], [ -1, %78 ], [ 1, %80 ], [ %62, %73 ], [ %86, %101 ], [ %.pre72, %103 ], [ %86, %83 ]
  ret i32 %.0
}